target datalayout = "e-m:e-p270:32:32-p271:32:32-p272:64:64-i64:64-i128:128-f80:128-n8:16:32:64-S128"
target triple = "x86_64-pc-linux-gnu"

%"class.__gnu_cxx::__normal_iterator.350" = type { ptr }
%"class.std::unique_ptr.351" = type { %"struct.std::__uniq_ptr_data.352" }
%"struct.std::__uniq_ptr_data.352" = type { %"class.std::__uniq_ptr_impl.353" }
%"class.std::__uniq_ptr_impl.353" = type { %"class.std::tuple.354" }
%"class.std::tuple.354" = type { %"struct.std::_Tuple_impl.355" }
%"struct.std::_Tuple_impl.355" = type { %"struct.std::_Head_base.358" }
%"struct.std::_Head_base.358" = type { ptr }
%"struct.__gnu_cxx::__ops::_Iter_comp_iter" = type { i8 }

; Function Attrs: mustprogress nounwind uwtable
define internal void @_ZN9__gnu_cxx17__normal_iteratorIPSt10unique_ptrIN12_GLOBAL__N_17PGOEdgeESt14default_deleteIS3_EESt6vectorIS6_SaIS6_EEEC2ERKS7_(ptr noundef nonnull align 8 dereferenceable(8) %0, ptr noundef nonnull align 8 dereferenceable(8) %1) unnamed_addr #1 align 2 {
  %3 = alloca ptr, align 8
  %4 = alloca ptr, align 8
  store ptr %0, ptr %3, align 8
  store ptr %1, ptr %4, align 8
  %5 = load ptr, ptr %3, align 8
  %6 = getelementptr inbounds nuw %"class.__gnu_cxx::__normal_iterator.350", ptr %5, i32 0, i32 0
  %7 = load ptr, ptr %4, align 8
  %8 = load ptr, ptr %7, align 8
  store ptr %8, ptr %6, align 8
  ret void
}

; Function Attrs: mustprogress nounwind uwtable
define internal noundef nonnull align 8 dereferenceable(8) ptr @_ZNK9__gnu_cxx17__normal_iteratorIPSt10unique_ptrIN12_GLOBAL__N_17PGOEdgeESt14default_deleteIS3_EESt6vectorIS6_SaIS6_EEE4baseEv(ptr noundef nonnull align 8 dereferenceable(8) %0) #1 align 2 {
  %2 = alloca ptr, align 8
  store ptr %0, ptr %2, align 8
  %3 = load ptr, ptr %2, align 8
  %4 = getelementptr inbounds nuw %"class.__gnu_cxx::__normal_iterator.350", ptr %3, i32 0, i32 0
  ret ptr %4
}

; Function Attrs: mustprogress nounwind uwtable
define internal ptr @_ZNK9__gnu_cxx17__normal_iteratorIPSt10unique_ptrIN12_GLOBAL__N_17PGOEdgeESt14default_deleteIS3_EESt6vectorIS6_SaIS6_EEEplEl(ptr noundef nonnull align 8 dereferenceable(8) %0, i64 noundef %1) #1 align 2 {
  %3 = alloca %"class.__gnu_cxx::__normal_iterator.350", align 8
  %4 = alloca ptr, align 8
  %5 = alloca i64, align 8
  %6 = alloca ptr, align 8
  store ptr %0, ptr %4, align 8
  store i64 %1, ptr %5, align 8
  %7 = load ptr, ptr %4, align 8
  %8 = getelementptr inbounds nuw %"class.__gnu_cxx::__normal_iterator.350", ptr %7, i32 0, i32 0
  %9 = load ptr, ptr %8, align 8
  %10 = load i64, ptr %5, align 8
  %11 = getelementptr inbounds %"class.std::unique_ptr.351", ptr %9, i64 %10
  store ptr %11, ptr %6, align 8
  call void @_ZN9__gnu_cxx17__normal_iteratorIPSt10unique_ptrIN12_GLOBAL__N_17PGOEdgeESt14default_deleteIS3_EESt6vectorIS6_SaIS6_EEEC2ERKS7_(ptr noundef nonnull align 8 dereferenceable(8) %3, ptr noundef nonnull align 8 dereferenceable(8) %6) #2
  %12 = getelementptr inbounds nuw %"class.__gnu_cxx::__normal_iterator.350", ptr %3, i32 0, i32 0
  %13 = load ptr, ptr %12, align 8
  ret ptr %13
}

; Function Attrs: mustprogress nounwind uwtable
define internal noundef i64 @_ZN9__gnu_cxxmiIPSt10unique_ptrIN12_GLOBAL__N_17PGOEdgeESt14default_deleteIS3_EESt6vectorIS6_SaIS6_EEEENS_17__normal_iteratorIT_T0_E15difference_typeERKSE_SH_(ptr noundef nonnull align 8 dereferenceable(8) %0, ptr noundef nonnull align 8 dereferenceable(8) %1) #1 {
  %3 = alloca ptr, align 8
  %4 = alloca ptr, align 8
  store ptr %0, ptr %3, align 8
  store ptr %1, ptr %4, align 8
  %5 = load ptr, ptr %3, align 8
  %6 = call noundef nonnull align 8 dereferenceable(8) ptr @_ZNK9__gnu_cxx17__normal_iteratorIPSt10unique_ptrIN12_GLOBAL__N_17PGOEdgeESt14default_deleteIS3_EESt6vectorIS6_SaIS6_EEE4baseEv(ptr noundef nonnull align 8 dereferenceable(8) %5) #2
  %7 = load ptr, ptr %6, align 8
  %8 = load ptr, ptr %4, align 8
  %9 = call noundef nonnull align 8 dereferenceable(8) ptr @_ZNK9__gnu_cxx17__normal_iteratorIPSt10unique_ptrIN12_GLOBAL__N_17PGOEdgeESt14default_deleteIS3_EESt6vectorIS6_SaIS6_EEE4baseEv(ptr noundef nonnull align 8 dereferenceable(8) %8) #2
  %10 = load ptr, ptr %9, align 8
  %11 = ptrtoint ptr %7 to i64
  %12 = ptrtoint ptr %10 to i64
  %13 = sub i64 %11, %12
  %14 = sdiv exact i64 %13, 8
  ret i64 %14
}

; Function Attrs: mustprogress nounwind uwtable
define internal void @_ZSt21__inplace_stable_sortIN9__gnu_cxx17__normal_iteratorIPSt10unique_ptrIN12_GLOBAL__N_17PGOEdgeESt14default_deleteIS4_EESt6vectorIS7_SaIS7_EEEENS0_5__ops15_Iter_comp_iterIZN4llvm6CFGMSTIS4_NS3_9PGOBBInfoEE17sortEdgesByWeightEvEUlRKS7_SK_E_EEEvT_SN_T0_(ptr %0, ptr %1) #1 {
  %3 = alloca %"class.__gnu_cxx::__normal_iterator.350", align 8
  %4 = alloca %"class.__gnu_cxx::__normal_iterator.350", align 8
  %5 = alloca %"struct.__gnu_cxx::__ops::_Iter_comp_iter", align 1
  %6 = alloca %"class.__gnu_cxx::__normal_iterator.350", align 8
  %7 = alloca %"class.__gnu_cxx::__normal_iterator.350", align 8
  %8 = alloca %"struct.__gnu_cxx::__ops::_Iter_comp_iter", align 1
  %9 = alloca %"class.__gnu_cxx::__normal_iterator.350", align 8
  %10 = alloca %"class.__gnu_cxx::__normal_iterator.350", align 8
  %11 = alloca %"class.__gnu_cxx::__normal_iterator.350", align 8
  %12 = alloca %"struct.__gnu_cxx::__ops::_Iter_comp_iter", align 1
  %13 = alloca %"class.__gnu_cxx::__normal_iterator.350", align 8
  %14 = alloca %"class.__gnu_cxx::__normal_iterator.350", align 8
  %15 = alloca %"struct.__gnu_cxx::__ops::_Iter_comp_iter", align 1
  %16 = alloca %"class.__gnu_cxx::__normal_iterator.350", align 8
  %17 = alloca %"class.__gnu_cxx::__normal_iterator.350", align 8
  %18 = alloca %"class.__gnu_cxx::__normal_iterator.350", align 8
  %19 = alloca %"struct.__gnu_cxx::__ops::_Iter_comp_iter", align 1
  %20 = getelementptr inbounds nuw %"class.__gnu_cxx::__normal_iterator.350", ptr %3, i32 0, i32 0
  store ptr %0, ptr %20, align 8
  %21 = getelementptr inbounds nuw %"class.__gnu_cxx::__normal_iterator.350", ptr %4, i32 0, i32 0
  store ptr %1, ptr %21, align 8
  %22 = call noundef i64 @_ZN9__gnu_cxxmiIPSt10unique_ptrIN12_GLOBAL__N_17PGOEdgeESt14default_deleteIS3_EESt6vectorIS6_SaIS6_EEEENS_17__normal_iteratorIT_T0_E15difference_typeERKSE_SH_(ptr noundef nonnull align 8 dereferenceable(8) %4, ptr noundef nonnull align 8 dereferenceable(8) %3) #2
  %23 = icmp slt i64 %22, 15
  br i1 %23, label %24, label %29

24:                                               ; preds = %2
  call void @llvm.memcpy.p0.p0.i64(ptr align 8 %6, ptr align 8 %3, i64 8, i1 false)
  call void @llvm.memcpy.p0.p0.i64(ptr align 8 %7, ptr align 8 %4, i64 8, i1 false)
  call void @llvm.memcpy.p0.p0.i64(ptr align 1 %8, ptr align 1 %5, i64 1, i1 false)
  %25 = getelementptr inbounds nuw %"class.__gnu_cxx::__normal_iterator.350", ptr %6, i32 0, i32 0
  %26 = load ptr, ptr %25, align 8
  %27 = getelementptr inbounds nuw %"class.__gnu_cxx::__normal_iterator.350", ptr %7, i32 0, i32 0
  %28 = load ptr, ptr %27, align 8
  call void @_ZSt16__insertion_sortIN9__gnu_cxx17__normal_iteratorIPSt10unique_ptrIN12_GLOBAL__N_17PGOEdgeESt14default_deleteIS4_EESt6vectorIS7_SaIS7_EEEENS0_5__ops15_Iter_comp_iterIZN4llvm6CFGMSTIS4_NS3_9PGOBBInfoEE17sortEdgesByWeightEvEUlRKS7_SK_E_EEEvT_SN_T0_(ptr %26, ptr %28)
  br label %50

29:                                               ; preds = %2
  %30 = call noundef i64 @_ZN9__gnu_cxxmiIPSt10unique_ptrIN12_GLOBAL__N_17PGOEdgeESt14default_deleteIS3_EESt6vectorIS6_SaIS6_EEEENS_17__normal_iteratorIT_T0_E15difference_typeERKSE_SH_(ptr noundef nonnull align 8 dereferenceable(8) %4, ptr noundef nonnull align 8 dereferenceable(8) %3) #2
  %31 = sdiv i64 %30, 2
  %32 = call ptr @_ZNK9__gnu_cxx17__normal_iteratorIPSt10unique_ptrIN12_GLOBAL__N_17PGOEdgeESt14default_deleteIS3_EESt6vectorIS6_SaIS6_EEEplEl(ptr noundef nonnull align 8 dereferenceable(8) %3, i64 noundef %31) #2
  %33 = getelementptr inbounds nuw %"class.__gnu_cxx::__normal_iterator.350", ptr %9, i32 0, i32 0
  store ptr %32, ptr %33, align 8
  call void @llvm.memcpy.p0.p0.i64(ptr align 8 %10, ptr align 8 %3, i64 8, i1 false)
  call void @llvm.memcpy.p0.p0.i64(ptr align 8 %11, ptr align 8 %9, i64 8, i1 false)
  call void @llvm.memcpy.p0.p0.i64(ptr align 1 %12, ptr align 1 %5, i64 1, i1 false)
  %34 = getelementptr inbounds nuw %"class.__gnu_cxx::__normal_iterator.350", ptr %10, i32 0, i32 0
  %35 = load ptr, ptr %34, align 8
  %36 = getelementptr inbounds nuw %"class.__gnu_cxx::__normal_iterator.350", ptr %11, i32 0, i32 0
  %37 = load ptr, ptr %36, align 8
  call void @_ZSt21__inplace_stable_sortIN9__gnu_cxx17__normal_iteratorIPSt10unique_ptrIN12_GLOBAL__N_17PGOEdgeESt14default_deleteIS4_EESt6vectorIS7_SaIS7_EEEENS0_5__ops15_Iter_comp_iterIZN4llvm6CFGMSTIS4_NS3_9PGOBBInfoEE17sortEdgesByWeightEvEUlRKS7_SK_E_EEEvT_SN_T0_(ptr %35, ptr %37)
  call void @llvm.memcpy.p0.p0.i64(ptr align 8 %13, ptr align 8 %9, i64 8, i1 false)
  call void @llvm.memcpy.p0.p0.i64(ptr align 8 %14, ptr align 8 %4, i64 8, i1 false)
  call void @llvm.memcpy.p0.p0.i64(ptr align 1 %15, ptr align 1 %5, i64 1, i1 false)
  %38 = getelementptr inbounds nuw %"class.__gnu_cxx::__normal_iterator.350", ptr %13, i32 0, i32 0
  %39 = load ptr, ptr %38, align 8
  %40 = getelementptr inbounds nuw %"class.__gnu_cxx::__normal_iterator.350", ptr %14, i32 0, i32 0
  %41 = load ptr, ptr %40, align 8
  call void @_ZSt21__inplace_stable_sortIN9__gnu_cxx17__normal_iteratorIPSt10unique_ptrIN12_GLOBAL__N_17PGOEdgeESt14default_deleteIS4_EESt6vectorIS7_SaIS7_EEEENS0_5__ops15_Iter_comp_iterIZN4llvm6CFGMSTIS4_NS3_9PGOBBInfoEE17sortEdgesByWeightEvEUlRKS7_SK_E_EEEvT_SN_T0_(ptr %39, ptr %41)
  call void @llvm.memcpy.p0.p0.i64(ptr align 8 %16, ptr align 8 %3, i64 8, i1 false)
  call void @llvm.memcpy.p0.p0.i64(ptr align 8 %17, ptr align 8 %9, i64 8, i1 false)
  call void @llvm.memcpy.p0.p0.i64(ptr align 8 %18, ptr align 8 %4, i64 8, i1 false)
  %42 = call noundef i64 @_ZN9__gnu_cxxmiIPSt10unique_ptrIN12_GLOBAL__N_17PGOEdgeESt14default_deleteIS3_EESt6vectorIS6_SaIS6_EEEENS_17__normal_iteratorIT_T0_E15difference_typeERKSE_SH_(ptr noundef nonnull align 8 dereferenceable(8) %9, ptr noundef nonnull align 8 dereferenceable(8) %3) #2
  %43 = call noundef i64 @_ZN9__gnu_cxxmiIPSt10unique_ptrIN12_GLOBAL__N_17PGOEdgeESt14default_deleteIS3_EESt6vectorIS6_SaIS6_EEEENS_17__normal_iteratorIT_T0_E15difference_typeERKSE_SH_(ptr noundef nonnull align 8 dereferenceable(8) %4, ptr noundef nonnull align 8 dereferenceable(8) %9) #2
  call void @llvm.memcpy.p0.p0.i64(ptr align 1 %19, ptr align 1 %5, i64 1, i1 false)
  %44 = getelementptr inbounds nuw %"class.__gnu_cxx::__normal_iterator.350", ptr %16, i32 0, i32 0
  %45 = load ptr, ptr %44, align 8
  %46 = getelementptr inbounds nuw %"class.__gnu_cxx::__normal_iterator.350", ptr %17, i32 0, i32 0
  %47 = load ptr, ptr %46, align 8
  %48 = getelementptr inbounds nuw %"class.__gnu_cxx::__normal_iterator.350", ptr %18, i32 0, i32 0
  %49 = load ptr, ptr %48, align 8
  call void @_ZSt22__merge_without_bufferIN9__gnu_cxx17__normal_iteratorIPSt10unique_ptrIN12_GLOBAL__N_17PGOEdgeESt14default_deleteIS4_EESt6vectorIS7_SaIS7_EEEElNS0_5__ops15_Iter_comp_iterIZN4llvm6CFGMSTIS4_NS3_9PGOBBInfoEE17sortEdgesByWeightEvEUlRKS7_SK_E_EEEvT_SN_SN_T0_SO_T1_(ptr %45, ptr %47, ptr %49, i64 noundef %42, i64 noundef %43)
  br label %50

50:                                               ; preds = %29, %24
  ret void
}