; Function Attrs: mustprogress nounwind uwtable
define internal fastcc void @_ZSt21__inplace_stable_sortIN9__gnu_cxx17__normal_iteratorIPSt10unique_ptrIN12_GLOBAL__N_17PGOEdgeESt14default_deleteIS4_EESt6vectorIS7_SaIS7_EEEENS0_5__ops15_Iter_comp_iterIZN4llvm6CFGMSTIS4_NS3_9PGOBBInfoEE17sortEdgesByWeightEvEUlRKS7_SK_E_EEEvT_SN_T0_(ptr %0, ptr %1) unnamed_addr #0 {
  %3 = ptrtoint ptr %1 to i64
  %4 = ptrtoint ptr %0 to i64
  %5 = sub i64 %3, %4
  %6 = ashr exact i64 %5, 3
  %7 = icmp slt i64 %6, 15
  br i1 %7, label %common.ret, label %8

common.ret:                                       ; preds = %2
  tail call fastcc void @_ZSt16__insertion_sortIN9__gnu_cxx17__normal_iteratorIPSt10unique_ptrIN12_GLOBAL__N_17PGOEdgeESt14default_deleteIS4_EESt6vectorIS7_SaIS7_EEEENS0_5__ops15_Iter_comp_iterIZN4llvm6CFGMSTIS4_NS3_9PGOBBInfoEE17sortEdgesByWeightEvEUlRKS7_SK_E_EEEvT_SN_T0_(ptr %0, ptr %1)
  br label %common.ret27

common.ret27:                                     ; preds = %8, %common.ret
  ret void

8:                                                ; preds = %2
  %9 = lshr i64 %6, 1
  %10 = getelementptr inbounds %"class.std::unique_ptr.351", ptr %0, i64 %9
  tail call fastcc void @_ZSt21__inplace_stable_sortIN9__gnu_cxx17__normal_iteratorIPSt10unique_ptrIN12_GLOBAL__N_17PGOEdgeESt14default_deleteIS4_EESt6vectorIS7_SaIS7_EEEENS0_5__ops15_Iter_comp_iterIZN4llvm6CFGMSTIS4_NS3_9PGOBBInfoEE17sortEdgesByWeightEvEUlRKS7_SK_E_EEEvT_SN_T0_(ptr %0, ptr %10)
  tail call fastcc void @_ZSt21__inplace_stable_sortIN9__gnu_cxx17__normal_iteratorIPSt10unique_ptrIN12_GLOBAL__N_17PGOEdgeESt14default_deleteIS4_EESt6vectorIS7_SaIS7_EEEENS0_5__ops15_Iter_comp_iterIZN4llvm6CFGMSTIS4_NS3_9PGOBBInfoEE17sortEdgesByWeightEvEUlRKS7_SK_E_EEEvT_SN_T0_(ptr %10, ptr %1)
  %11 = ptrtoint ptr %10 to i64
  %12 = sub i64 %3, %11
  %13 = ashr exact i64 %12, 3
  tail call fastcc void @_ZSt22__merge_without_bufferIN9__gnu_cxx17__normal_iteratorIPSt10unique_ptrIN12_GLOBAL__N_17PGOEdgeESt14default_deleteIS4_EESt6vectorIS7_SaIS7_EEEElNS0_5__ops15_Iter_comp_iterIZN4llvm6CFGMSTIS4_NS3_9PGOBBInfoEE17sortEdgesByWeightEvEUlRKS7_SK_E_EEEvT_SN_SN_T0_SO_T1_(ptr %0, ptr %10, ptr %1, i64 noundef %9, i64 noundef %13)
  br label %common.ret27
}